target datalayout = "e-m:e-p270:32:32-p271:32:32-p272:64:64-i64:64-i128:128-f80:128-n8:16:32:64-S128"
target triple = "x86_64-pc-linux-gnu"

; Function Attrs: nounwind uwtable
define void @av_image_copy(ptr noundef %0, ptr noundef %1, ptr noundef %2, ptr noundef %3, i32 noundef %4, i32 noundef %5, i32 noundef %6) #0 {
  %8 = alloca ptr, align 8
  %9 = alloca ptr, align 8
  %10 = alloca ptr, align 8
  %11 = alloca ptr, align 8
  %12 = alloca i32, align 4
  %13 = alloca i32, align 4
  %14 = alloca i32, align 4
  %15 = alloca [4 x i64], align 16
  %16 = alloca [4 x i64], align 16
  %17 = alloca i32, align 4
  store ptr %0, ptr %8, align 8, !tbaa !32
  store ptr %1, ptr %9, align 8, !tbaa !4
  store ptr %2, ptr %10, align 8, !tbaa !32
  store ptr %3, ptr %11, align 8, !tbaa !4
  store i32 %4, ptr %12, align 4, !tbaa !11
  store i32 %5, ptr %13, align 4, !tbaa !11
  store i32 %6, ptr %14, align 4, !tbaa !11
  call void @llvm.lifetime.start.p0(i64 32, ptr %15) #9
  call void @llvm.lifetime.start.p0(i64 32, ptr %16) #9
  call void @llvm.lifetime.start.p0(i64 4, ptr %17) #9
  store i32 0, ptr %17, align 4, !tbaa !11
  br label %18

18:                                               ; preds = %40, %7
  %19 = load i32, ptr %17, align 4, !tbaa !11
  %20 = icmp slt i32 %19, 4
  br i1 %20, label %21, label %43

21:                                               ; preds = %18
  %22 = load ptr, ptr %9, align 8, !tbaa !4
  %23 = load i32, ptr %17, align 4, !tbaa !11
  %24 = sext i32 %23 to i64
  %25 = getelementptr inbounds i32, ptr %22, i64 %24
  %26 = load i32, ptr %25, align 4, !tbaa !11
  %27 = sext i32 %26 to i64
  %28 = load i32, ptr %17, align 4, !tbaa !11
  %29 = sext i32 %28 to i64
  %30 = getelementptr inbounds [4 x i64], ptr %15, i64 0, i64 %29
  store i64 %27, ptr %30, align 8, !tbaa !28
  %31 = load ptr, ptr %11, align 8, !tbaa !4
  %32 = load i32, ptr %17, align 4, !tbaa !11
  %33 = sext i32 %32 to i64
  %34 = getelementptr inbounds i32, ptr %31, i64 %33
  %35 = load i32, ptr %34, align 4, !tbaa !11
  %36 = sext i32 %35 to i64
  %37 = load i32, ptr %17, align 4, !tbaa !11
  %38 = sext i32 %37 to i64
  %39 = getelementptr inbounds [4 x i64], ptr %16, i64 0, i64 %38
  store i64 %36, ptr %39, align 8, !tbaa !28
  br label %40

40:                                               ; preds = %21
  %41 = load i32, ptr %17, align 4, !tbaa !11
  %42 = add nsw i32 %41, 1
  store i32 %42, ptr %17, align 4, !tbaa !11
  br label %18, !llvm.loop !52

43:                                               ; preds = %18
  %44 = load ptr, ptr %8, align 8, !tbaa !32
  %45 = getelementptr inbounds [4 x i64], ptr %15, i64 0, i64 0
  %46 = load ptr, ptr %10, align 8, !tbaa !32
  %47 = getelementptr inbounds [4 x i64], ptr %16, i64 0, i64 0
  %48 = load i32, ptr %12, align 4, !tbaa !11
  %49 = load i32, ptr %13, align 4, !tbaa !11
  %50 = load i32, ptr %14, align 4, !tbaa !11
  call void @image_copy(ptr noundef %44, ptr noundef %45, ptr noundef %46, ptr noundef %47, i32 noundef %48, i32 noundef %49, i32 noundef %50, ptr noundef @image_copy_plane)
  call void @llvm.lifetime.end.p0(i64 4, ptr %17) #9
  call void @llvm.lifetime.end.p0(i64 32, ptr %16) #9
  call void @llvm.lifetime.end.p0(i64 32, ptr %15) #9
  ret void
}