; Function Attrs: nounwind uwtable
define void @av_image_copy(ptr noundef readonly captures(none) %0, ptr noundef readonly captures(none) %1, ptr noundef readonly captures(none) %2, ptr noundef readonly captures(none) %3, i32 noundef %4, i32 noundef %5, i32 noundef %6) local_unnamed_addr #3 {
  %8 = alloca [4 x i64], align 16
  %9 = alloca [4 x i64], align 16
  call void @llvm.lifetime.start.p0(i64 32, ptr nonnull %8) #11
  call void @llvm.lifetime.start.p0(i64 32, ptr nonnull %9) #11
  br label %10

10:                                               ; preds = %7, %10
  %indvars.iv = phi i64 [ 0, %7 ], [ %indvars.iv.next, %10 ]
  %11 = getelementptr inbounds nuw i32, ptr %1, i64 %indvars.iv
  %12 = load i32, ptr %11, align 4, !tbaa !10
  %13 = sext i32 %12 to i64
  %14 = getelementptr inbounds nuw [4 x i64], ptr %8, i64 0, i64 %indvars.iv
  store i64 %13, ptr %14, align 8, !tbaa !20
  %15 = getelementptr inbounds nuw i32, ptr %3, i64 %indvars.iv
  %16 = load i32, ptr %15, align 4, !tbaa !10
  %17 = sext i32 %16 to i64
  %18 = getelementptr inbounds nuw [4 x i64], ptr %9, i64 0, i64 %indvars.iv
  store i64 %17, ptr %18, align 8, !tbaa !20
  %indvars.iv.next = add nuw nsw i64 %indvars.iv, 1
  %exitcond.not = icmp eq i64 %indvars.iv.next, 4
  br i1 %exitcond.not, label %19, label %10, !llvm.loop !37

19:                                               ; preds = %10
  call fastcc void @image_copy(ptr noundef %0, ptr noundef nonnull %8, ptr noundef %2, ptr noundef nonnull %9, i32 noundef %4, i32 noundef %5, i32 noundef %6, ptr noundef nonnull @image_copy_plane)
  call void @llvm.lifetime.end.p0(i64 32, ptr nonnull %9) #11
  call void @llvm.lifetime.end.p0(i64 32, ptr nonnull %8) #11
  ret void
}